; Function Attrs: nounwind uwtable
define void @dt_camctl_select_camera(ptr noundef %0, ptr noundef %1) local_unnamed_addr #0 {
  %3 = tail call i32 @pthread_mutex_lock(ptr noundef %0) #15
  %4 = load i32, ptr getelementptr inbounds nuw (i8, ptr @darktable, i64 8), align 8, !tbaa !19
  %5 = and i32 %4, 32
  %.not.i = icmp eq i32 %5, 0
  br i1 %.not.i, label %8, label %6

6:                                                ; preds = %2
  %7 = load ptr, ptr %1, align 8, !tbaa !80
  tail call void (ptr, ...) @dt_print_ext(ptr noundef nonnull @.str.77, ptr noundef %7) #15
  br label %8

8:                                                ; preds = %6, %2
  %9 = getelementptr inbounds nuw i8, ptr %0, i64 144
  store ptr %1, ptr %9, align 8, !tbaa !6
  %10 = getelementptr inbounds nuw i8, ptr %0, i64 40
  %11 = tail call i32 @pthread_mutex_lock(ptr noundef nonnull %10) #15
  %12 = getelementptr inbounds nuw i8, ptr %0, i64 88
  %.013.i.i = load ptr, ptr %12, align 8, !tbaa !83
  %.not14.i.i = icmp eq ptr %.013.i.i, null
  br i1 %.not14.i.i, label %_camctl_lock.exit, label %.lr.ph.i.i

.lr.ph.i.i:                                       ; preds = %8, %18
  %.015.i.i = phi ptr [ %.0.i.i, %18 ], [ %.013.i.i, %8 ]
  %13 = load ptr, ptr %.015.i.i, align 8, !tbaa !78
  %14 = getelementptr inbounds nuw i8, ptr %13, i64 8
  %15 = load ptr, ptr %14, align 8, !tbaa !126
  %.not12.i.i = icmp eq ptr %15, null
  br i1 %.not12.i.i, label %18, label %16

16:                                               ; preds = %.lr.ph.i.i
  %17 = load ptr, ptr %13, align 8, !tbaa !86
  tail call void %15(i32 noundef 0, ptr noundef %17) #15
  br label %18

18:                                               ; preds = %16, %.lr.ph.i.i
  %19 = getelementptr inbounds nuw i8, ptr %.015.i.i, i64 8
  %.0.i.i = load ptr, ptr %19, align 8, !tbaa !83
  %.not.i.i = icmp eq ptr %.0.i.i, null
  br i1 %.not.i.i, label %_camctl_lock.exit, label %.lr.ph.i.i

_camctl_lock.exit:                                ; preds = %18, %8
  %20 = tail call i32 @pthread_mutex_unlock(ptr noundef nonnull %10) #15
  %21 = getelementptr inbounds nuw i8, ptr %0, i64 136
  store ptr %1, ptr %21, align 8, !tbaa !61
  tail call fastcc void @_camctl_unlock(ptr noundef %0)
  ret void
}